; ModuleID = '30/2795.c'
source_filename = "30/2795.c"
target datalayout = "e-m:e-p270:32:32-p271:32:32-p272:64:64-i64:64-f80:128-n8:16:32:64-S128"
target triple = "x86_64-pc-linux-gnu"

@.str = private unnamed_addr constant [3 x i8] c"%d\00", align 1
@.str.1 = private unnamed_addr constant [4 x i8] c"%d\0A\00", align 1

; Function Attrs: noinline nounwind uwtable
define dso_local i32 @main() #0 {
  %1 = alloca i32, align 4
  %2 = alloca i32, align 4
  %3 = alloca i32, align 4
  %4 = alloca i32, align 4
  store i32 0, i32* %1, align 4
  store i32 0, i32* %3, align 4
  %5 = call i32 (i8*, ...) @__isoc99_scanf(i8* getelementptr inbounds ([3 x i8], [3 x i8]* @.str, i64 0, i64 0), i32* %2)
  store i32 1, i32* %4, align 4
  br label %6

6:                                                ; preds = %25, %0
  %7 = load i32, i32* %4, align 4
  %8 = load i32, i32* %2, align 4
  %9 = icmp sle i32 %7, %8
  br i1 %9, label %10, label %28

10:                                               ; preds = %6
  %11 = load i32, i32* %4, align 4
  %12 = srem i32 %11, 7
  %13 = icmp ne i32 %12, 0
  br i1 %13, label %14, label %24

14:                                               ; preds = %10
  %15 = load i32, i32* %4, align 4
  %16 = call i32 @leap(i32 %15)
  %17 = icmp ne i32 %16, 0
  br i1 %17, label %18, label %24

18:                                               ; preds = %14
  %19 = load i32, i32* %3, align 4
  %20 = load i32, i32* %4, align 4
  %21 = load i32, i32* %4, align 4
  %22 = mul nsw i32 %20, %21
  %23 = add nsw i32 %19, %22
  store i32 %23, i32* %3, align 4
  br label %24

24:                                               ; preds = %18, %14, %10
  br label %25

25:                                               ; preds = %24
  %26 = load i32, i32* %4, align 4
  %27 = add nsw i32 %26, 1
  store i32 %27, i32* %4, align 4
  br label %6

28:                                               ; preds = %6
  %29 = load i32, i32* %3, align 4
  %30 = call i32 (i8*, ...) @printf(i8* getelementptr inbounds ([4 x i8], [4 x i8]* @.str.1, i64 0, i64 0), i32 %29)
  ret i32 0
}

declare dso_local i32 @__isoc99_scanf(i8*, ...) #1

; Function Attrs: noinline nounwind uwtable
define dso_local i32 @leap(i32 %0) #0 {
  %2 = alloca i32, align 4
  %3 = alloca i32, align 4
  %4 = alloca i32, align 4
  %5 = alloca i32, align 4
  store i32 %0, i32* %2, align 4
  %6 = load i32, i32* %2, align 4
  %7 = sdiv i32 %6, 10
  store i32 %7, i32* %3, align 4
  %8 = load i32, i32* %2, align 4
  %9 = srem i32 %8, 10
  store i32 %9, i32* %4, align 4
  %10 = load i32, i32* %3, align 4
  %11 = icmp ne i32 %10, 7
  br i1 %11, label %12, label %16

12:                                               ; preds = %1
  %13 = load i32, i32* %4, align 4
  %14 = icmp ne i32 %13, 7
  br i1 %14, label %15, label %16

15:                                               ; preds = %12
  store i32 1, i32* %5, align 4
  br label %16

16:                                               ; preds = %15, %12, %1
  %17 = load i32, i32* %3, align 4
  %18 = icmp eq i32 %17, 7
  br i1 %18, label %22, label %19

19:                                               ; preds = %16
  %20 = load i32, i32* %4, align 4
  %21 = icmp eq i32 %20, 7
  br i1 %21, label %22, label %23

22:                                               ; preds = %19, %16
  store i32 0, i32* %5, align 4
  br label %23

23:                                               ; preds = %22, %19
  %24 = load i32, i32* %5, align 4
  ret i32 %24
}

declare dso_local i32 @printf(i8*, ...) #1


!llvm.module.flags = !{!0}
!llvm.ident = !{!1}

!0 = !{i32 1, !"wchar_size", i32 4}
!1 = !{!"clang version 10.0.0-4ubuntu1 "}
